target datalayout = "e-m:e-p270:32:32-p271:32:32-p272:64:64-i64:64-i128:128-f80:128-n8:16:32:64-S128"
target triple = "x86_64-pc-linux-gnu"

%struct.DdManager = type { %struct.DdNode, ptr, ptr, ptr, ptr, ptr, ptr, ptr, i32, i32, double, double, double, i32, i32, i32, i32, i32, i32, ptr, ptr, %struct.DdSubtable, i32, i32, i32, i32, i32, i32, i32, double, i32, i32, i32, ptr, i64, double, i32, ptr, ptr, ptr, ptr, ptr, ptr, ptr, i32, ptr, ptr, ptr, ptr, ptr, ptr, i32, i32, i32, double, i32, i32, i32, i32, double, double, i32, i32, i32, i32, i32, i32, i32, i32, i32, ptr, ptr, i32, i32, i32, i32, i32, i32, ptr, ptr, ptr, ptr, ptr, ptr, ptr, ptr, i32, i64, i64, i64, i32, i64, i64, double, double, double, double, double, double, i32, ptr, ptr, i64 }
%struct.DdNode = type { i32, i32, ptr, %union.anon, i64 }
%union.anon = type { %struct.DdChildren }
%struct.DdChildren = type { ptr, ptr }
%struct.DdSubtable = type { ptr, i32, i32, i32, i32, i32, i32, i32, i32, i32, i32, i32 }

; Function Attrs: nounwind uwtable
define internal ptr @separateCube(ptr noundef %0, ptr noundef %1, ptr noundef %2) #0 {
  %4 = alloca ptr, align 8
  %5 = alloca ptr, align 8
  %6 = alloca ptr, align 8
  %7 = alloca ptr, align 8
  %8 = alloca ptr, align 8
  %9 = alloca ptr, align 8
  store ptr %0, ptr %5, align 8
  store ptr %1, ptr %6, align 8
  store ptr %2, ptr %7, align 8
  %10 = load ptr, ptr %6, align 8
  %11 = ptrtoint ptr %10 to i64
  %12 = and i64 %11, -2
  %13 = inttoptr i64 %12 to ptr
  %14 = getelementptr inbounds %struct.DdNode, ptr %13, i32 0, i32 0
  %15 = load i32, ptr %14, align 8
  %16 = icmp eq i32 %15, 2147483647
  br i1 %16, label %17, label %26

17:                                               ; preds = %3
  %18 = load ptr, ptr %6, align 8
  %19 = load ptr, ptr %5, align 8
  %20 = getelementptr inbounds %struct.DdManager, ptr %19, i32 0, i32 1
  %21 = load ptr, ptr %20, align 8
  %22 = icmp eq ptr %18, %21
  %23 = select i1 %22, double 0.000000e+00, double 0x41E0000000000000
  %24 = load ptr, ptr %7, align 8
  store double %23, ptr %24, align 8
  %25 = load ptr, ptr %6, align 8
  store ptr %25, ptr %4, align 8
  br label %81

26:                                               ; preds = %3
  %27 = load ptr, ptr %6, align 8
  %28 = getelementptr inbounds %struct.DdNode, ptr %27, i32 0, i32 3
  %29 = getelementptr inbounds %struct.DdChildren, ptr %28, i32 0, i32 0
  %30 = load ptr, ptr %29, align 8
  store ptr %30, ptr %9, align 8
  %31 = load ptr, ptr %9, align 8
  %32 = ptrtoint ptr %31 to i64
  %33 = and i64 %32, -2
  %34 = inttoptr i64 %33 to ptr
  %35 = getelementptr inbounds %struct.DdNode, ptr %34, i32 0, i32 0
  %36 = load i32, ptr %35, align 8
  %37 = icmp eq i32 %36, 2147483647
  br i1 %37, label %38, label %61

38:                                               ; preds = %26
  %39 = load ptr, ptr %9, align 8
  %40 = getelementptr inbounds %struct.DdNode, ptr %39, i32 0, i32 3
  %41 = load double, ptr %40, align 8
  %42 = fcmp ole double %41, 0.000000e+00
  br i1 %42, label %43, label %61

43:                                               ; preds = %38
  %44 = load ptr, ptr %9, align 8
  %45 = getelementptr inbounds %struct.DdNode, ptr %44, i32 0, i32 3
  %46 = load double, ptr %45, align 8
  %47 = fneg double %46
  %48 = load ptr, ptr %7, align 8
  store double %47, ptr %48, align 8
  %49 = load ptr, ptr %5, align 8
  %50 = load ptr, ptr %6, align 8
  %51 = getelementptr inbounds %struct.DdNode, ptr %50, i32 0, i32 0
  %52 = load i32, ptr %51, align 8
  %53 = load ptr, ptr %5, align 8
  %54 = getelementptr inbounds %struct.DdManager, ptr %53, i32 0, i32 2
  %55 = load ptr, ptr %54, align 8
  %56 = load ptr, ptr %6, align 8
  %57 = getelementptr inbounds %struct.DdNode, ptr %56, i32 0, i32 3
  %58 = getelementptr inbounds %struct.DdChildren, ptr %57, i32 0, i32 1
  %59 = load ptr, ptr %58, align 8
  %60 = call ptr @cuddUniqueInter(ptr noundef %49, i32 noundef %52, ptr noundef %55, ptr noundef %59)
  store ptr %60, ptr %8, align 8
  br label %79

61:                                               ; preds = %38, %26
  %62 = load ptr, ptr %6, align 8
  %63 = getelementptr inbounds %struct.DdNode, ptr %62, i32 0, i32 3
  %64 = getelementptr inbounds %struct.DdChildren, ptr %63, i32 0, i32 1
  %65 = load ptr, ptr %64, align 8
  %66 = getelementptr inbounds %struct.DdNode, ptr %65, i32 0, i32 3
  %67 = load double, ptr %66, align 8
  %68 = fneg double %67
  %69 = load ptr, ptr %7, align 8
  store double %68, ptr %69, align 8
  %70 = load ptr, ptr %5, align 8
  %71 = load ptr, ptr %6, align 8
  %72 = getelementptr inbounds %struct.DdNode, ptr %71, i32 0, i32 0
  %73 = load i32, ptr %72, align 8
  %74 = load ptr, ptr %9, align 8
  %75 = load ptr, ptr %5, align 8
  %76 = getelementptr inbounds %struct.DdManager, ptr %75, i32 0, i32 2
  %77 = load ptr, ptr %76, align 8
  %78 = call ptr @cuddUniqueInter(ptr noundef %70, i32 noundef %73, ptr noundef %74, ptr noundef %77)
  store ptr %78, ptr %8, align 8
  br label %79

79:                                               ; preds = %61, %43
  %80 = load ptr, ptr %8, align 8
  store ptr %80, ptr %4, align 8
  br label %81

81:                                               ; preds = %79, %17
  %82 = load ptr, ptr %4, align 8
  ret ptr %82
}