; Function Attrs: nounwind uwtable
define internal fastcc ptr @separateCube(ptr noundef %0, ptr noundef nonnull %1, ptr noundef nonnull writeonly captures(none) initializes((0, 8)) %2) unnamed_addr #0 {
  %4 = ptrtoint ptr %1 to i64
  %5 = and i64 %4, -2
  %6 = inttoptr i64 %5 to ptr
  %7 = load i32, ptr %6, align 8
  %8 = icmp eq i32 %7, 2147483647
  br i1 %8, label %9, label %14

9:                                                ; preds = %3
  %10 = getelementptr inbounds nuw i8, ptr %0, i64 40
  %11 = load ptr, ptr %10, align 8
  %12 = icmp eq ptr %1, %11
  %13 = select i1 %12, double 0.000000e+00, double 0x41E0000000000000
  store double %13, ptr %2, align 8
  br label %44

14:                                               ; preds = %3
  %15 = getelementptr inbounds nuw i8, ptr %1, i64 16
  %16 = load ptr, ptr %15, align 8
  %17 = ptrtoint ptr %16 to i64
  %18 = and i64 %17, -2
  %19 = inttoptr i64 %18 to ptr
  %20 = load i32, ptr %19, align 8
  %21 = icmp eq i32 %20, 2147483647
  br i1 %21, label %22, label %34

22:                                               ; preds = %14
  %23 = getelementptr inbounds nuw i8, ptr %16, i64 16
  %24 = load double, ptr %23, align 8
  %25 = fcmp ugt double %24, 0.000000e+00
  br i1 %25, label %34, label %26

26:                                               ; preds = %22
  %27 = fneg double %24
  store double %27, ptr %2, align 8
  %28 = load i32, ptr %1, align 8
  %29 = getelementptr inbounds nuw i8, ptr %0, i64 48
  %30 = load ptr, ptr %29, align 8
  %31 = getelementptr inbounds nuw i8, ptr %1, i64 24
  %32 = load ptr, ptr %31, align 8
  %33 = tail call ptr @cuddUniqueInter(ptr noundef %0, i32 noundef %28, ptr noundef %30, ptr noundef %32) #6
  br label %44

34:                                               ; preds = %22, %14
  %35 = getelementptr inbounds nuw i8, ptr %1, i64 24
  %36 = load ptr, ptr %35, align 8
  %37 = getelementptr inbounds nuw i8, ptr %36, i64 16
  %38 = load double, ptr %37, align 8
  %39 = fneg double %38
  store double %39, ptr %2, align 8
  %40 = load i32, ptr %1, align 8
  %41 = getelementptr inbounds nuw i8, ptr %0, i64 48
  %42 = load ptr, ptr %41, align 8
  %43 = tail call ptr @cuddUniqueInter(ptr noundef %0, i32 noundef %40, ptr noundef %16, ptr noundef %42) #6
  br label %44

44:                                               ; preds = %26, %34, %9
  %.0 = phi ptr [ %1, %9 ], [ %33, %26 ], [ %43, %34 ]
  ret ptr %.0
}